; Function Attrs: nounwind uwtable
define dso_local void @trigger_primary_db_fail() local_unnamed_addr #0 {
  %1 = tail call i32 @pthread_mutex_lock(ptr noundef nonnull @trigger_mutex) #12
  %.not = icmp eq i32 %1, 0
  br i1 %.not, label %4, label %2

2:                                                ; preds = %0
  %3 = tail call ptr @__errno_location() #13
  store i32 %1, ptr %3, align 4
  tail call void (ptr, ...) @fatal_abort(ptr noundef nonnull @.str.2, ptr noundef nonnull @__func__.trigger_primary_db_fail) #14
  unreachable

4:                                                ; preds = %0
  %5 = load i8, ptr @db_failure, align 1
  %.not5 = icmp eq i8 %5, 1
  br i1 %.not5, label %7, label %6

6:                                                ; preds = %4
  store i1 true, ptr @trigger_pri_db_fail, align 1
  store i8 1, ptr @db_failure, align 1
  br label %7

7:                                                ; preds = %4, %6
  %8 = tail call i32 @pthread_mutex_unlock(ptr noundef nonnull @trigger_mutex) #12
  %.not6 = icmp eq i32 %8, 0
  br i1 %.not6, label %11, label %9

9:                                                ; preds = %7
  %10 = tail call ptr @__errno_location() #13
  store i32 %8, ptr %10, align 4
  tail call void (ptr, ...) @fatal_abort(ptr noundef nonnull @.str.3, ptr noundef nonnull @__func__.trigger_primary_db_fail) #14
  unreachable

11:                                               ; preds = %7
  ret void
}